; Function Attrs: nofree nosync nounwind memory(readwrite, inaccessiblemem: none) uwtable
define void @Abc_NtkUnmarkCone_rec(ptr noundef captures(none) %0, i32 noundef %1) local_unnamed_addr #2 {
  %3 = getelementptr inbounds nuw i8, ptr %0, i64 20
  %4 = load i32, ptr %3, align 4
  %5 = and i32 %4, 16
  %.not = icmp eq i32 %5, 0
  %6 = and i32 %4, 15
  %.not29 = icmp eq i32 %6, 8
  %or.cond = or i1 %.not, %.not29
  br i1 %or.cond, label %.critedge, label %7

7:                                                ; preds = %2
  %8 = and i32 %4, -17
  store i32 %8, ptr %3, align 4
  %.not22 = icmp eq i32 %1, 0
  br i1 %.not22, label %.preheader, label %.preheader30

.preheader30:                                     ; preds = %7
  %9 = getelementptr i8, ptr %0, i64 44
  %.val2332 = load i32, ptr %9, align 4, !tbaa !67
  %10 = icmp sgt i32 %.val2332, 0
  br i1 %10, label %.lr.ph, label %.critedge

.lr.ph:                                           ; preds = %.preheader30
  %11 = getelementptr i8, ptr %0, i64 48
  br label %15

.preheader:                                       ; preds = %7
  %12 = getelementptr i8, ptr %0, i64 28
  %.val2634 = load i32, ptr %12, align 4, !tbaa !46
  %13 = icmp sgt i32 %.val2634, 0
  br i1 %13, label %.lr.ph36, label %.critedge

.lr.ph36:                                         ; preds = %.preheader
  %14 = getelementptr i8, ptr %0, i64 32
  br label %25

15:                                               ; preds = %.lr.ph, %15
  %indvars.iv = phi i64 [ 0, %.lr.ph ], [ %indvars.iv.next, %15 ]
  %.val24 = load ptr, ptr %0, align 8, !tbaa !38
  %.val25 = load ptr, ptr %11, align 8, !tbaa !51
  %16 = getelementptr i8, ptr %.val24, i64 32
  %.val24.val = load ptr, ptr %16, align 8, !tbaa !42
  %17 = getelementptr i8, ptr %.val24.val, i64 8
  %.val24.val.val = load ptr, ptr %17, align 8, !tbaa !35
  %18 = getelementptr inbounds nuw i32, ptr %.val25, i64 %indvars.iv
  %19 = load i32, ptr %18, align 4, !tbaa !3
  %20 = sext i32 %19 to i64
  %21 = getelementptr inbounds ptr, ptr %.val24.val.val, i64 %20
  %22 = load ptr, ptr %21, align 8, !tbaa !36
  tail call void @Abc_NtkUnmarkCone_rec(ptr noundef %22, i32 noundef %1)
  %indvars.iv.next = add nuw nsw i64 %indvars.iv, 1
  %.val23 = load i32, ptr %9, align 4, !tbaa !67
  %23 = sext i32 %.val23 to i64
  %24 = icmp slt i64 %indvars.iv.next, %23
  br i1 %24, label %15, label %.critedge, !llvm.loop !70

25:                                               ; preds = %.lr.ph36, %25
  %indvars.iv39 = phi i64 [ 0, %.lr.ph36 ], [ %indvars.iv.next40, %25 ]
  %.val27 = load ptr, ptr %0, align 8, !tbaa !38
  %.val28 = load ptr, ptr %14, align 8, !tbaa !41
  %26 = getelementptr i8, ptr %.val27, i64 32
  %.val27.val = load ptr, ptr %26, align 8, !tbaa !42
  %27 = getelementptr i8, ptr %.val27.val, i64 8
  %.val27.val.val = load ptr, ptr %27, align 8, !tbaa !35
  %28 = getelementptr inbounds nuw i32, ptr %.val28, i64 %indvars.iv39
  %29 = load i32, ptr %28, align 4, !tbaa !3
  %30 = sext i32 %29 to i64
  %31 = getelementptr inbounds ptr, ptr %.val27.val.val, i64 %30
  %32 = load ptr, ptr %31, align 8, !tbaa !36
  tail call void @Abc_NtkUnmarkCone_rec(ptr noundef %32, i32 noundef 0)
  %indvars.iv.next40 = add nuw nsw i64 %indvars.iv39, 1
  %.val26 = load i32, ptr %12, align 4, !tbaa !46
  %33 = sext i32 %.val26 to i64
  %34 = icmp slt i64 %indvars.iv.next40, %33
  br i1 %34, label %25, label %.critedge, !llvm.loop !71

.critedge:                                        ; preds = %15, %25, %.preheader30, %.preheader, %2
  ret void
}